target datalayout = "e-m:e-p270:32:32-p271:32:32-p272:64:64-i64:64-i128:128-f80:128-n8:16:32:64-S128"
target triple = "x86_64-unknown-linux-gnu"

%struct.BdrvDirtyBitmap = type { ptr, ptr, i8, ptr, ptr, i64, i8, i32, i8, i8, i8, i8, %struct.anon }
%struct.anon = type { ptr, ptr }
%struct.BlockDriverState = type { i32, i8, i8, i8, i8, i8, ptr, ptr, ptr, %struct.anon.0, i8, [4096 x i8], [4096 x i8], [4096 x i8], [16 x i8], ptr, [4096 x i8], %struct.BlockLimits, i32, i32, i32, i32, [32 x i8], %union.anon, %union.anon.1, %union.anon.2, i32, [16 x %struct.anon.3], ptr, %struct.anon.4, ptr, ptr, %struct.anon.5, ptr, ptr, i32, ptr, i64, i64, %struct.QemuMutex, %struct.anon.6, %struct.Stat64, i32, i32, i32, i32, i32, i32, %struct.QemuMutex, %struct.anon.7, %struct.CoQueue, i8, i32, i8, %struct.CoMutex, ptr, ptr }
%struct.anon.0 = type { ptr }
%struct.BlockLimits = type { i32, i64, i32, i64, i32, i32, i32, i64, i32, i64, i64, i32, i8, i32, i32, i32, i32, i32, i32, i32 }
%union.anon = type { %struct.QTailQLink }
%struct.QTailQLink = type { ptr, ptr }
%union.anon.1 = type { %struct.QTailQLink }
%union.anon.2 = type { %struct.QTailQLink }
%struct.anon.3 = type { ptr }
%struct.anon.4 = type { ptr }
%struct.anon.5 = type { ptr }
%struct.anon.6 = type { ptr }
%struct.Stat64 = type { i64 }
%struct.QemuMutex = type { %union.pthread_mutex_t, i8 }
%union.pthread_mutex_t = type { %struct.__pthread_mutex_s }
%struct.__pthread_mutex_s = type { i32, i32, i32, i32, i32, i16, i16, %struct.__pthread_internal_list }
%struct.__pthread_internal_list = type { ptr, ptr }
%struct.anon.7 = type { ptr }
%struct.CoQueue = type { %struct.anon.8 }
%struct.anon.8 = type { ptr, ptr }
%struct.CoMutex = type { i32, ptr, %struct.anon.9, %struct.anon.9, i32, i32, ptr }
%struct.anon.9 = type { ptr }

@.str = private unnamed_addr constant [5 x i8] c"name\00", align 1
@.str.1 = private unnamed_addr constant [29 x i8] c"../qemu/block/dirty-bitmap.c\00", align 1
@__PRETTY_FUNCTION__.bdrv_find_dirty_bitmap = private unnamed_addr constant [74 x i8] c"BdrvDirtyBitmap *bdrv_find_dirty_bitmap(BlockDriverState *, const char *)\00", align 1
@.str.2 = private unnamed_addr constant [62 x i8] c"is_power_of_2(granularity) && granularity >= BDRV_SECTOR_SIZE\00", align 1
@__PRETTY_FUNCTION__.bdrv_create_dirty_bitmap = private unnamed_addr constant [96 x i8] c"BdrvDirtyBitmap *bdrv_create_dirty_bitmap(BlockDriverState *, uint32_t, const char *, Error **)\00", align 1
@__func__.bdrv_create_dirty_bitmap = private unnamed_addr constant [25 x i8] c"bdrv_create_dirty_bitmap\00", align 1
@.str.3 = private unnamed_addr constant [26 x i8] c"Bitmap already exists: %s\00", align 1
@.str.4 = private unnamed_addr constant [25 x i8] c"Bitmap name too long: %s\00", align 1
@.str.5 = private unnamed_addr constant [31 x i8] c"could not get length of device\00", align 1
@__func__.bdrv_dirty_bitmaps_lock = private unnamed_addr constant [24 x i8] c"bdrv_dirty_bitmaps_lock\00", align 1
@qemu_mutex_lock_func = external global ptr, align 8

; Function Attrs: nounwind sspstrong uwtable
define internal void @bdrv_dirty_bitmaps_unlock(ptr noundef %bs) #0 {
entry:
  %bs.addr = alloca ptr, align 8
  store ptr %bs, ptr %bs.addr, align 8
  %0 = load ptr, ptr %bs.addr, align 8
  %dirty_bitmap_mutex = getelementptr inbounds %struct.BlockDriverState, ptr %0, i32 0, i32 39
  call void @qemu_mutex_unlock_impl(ptr noundef %dirty_bitmap_mutex, ptr noundef @.str.1, i32 noundef 71)
  ret void
}

; Function Attrs: nounwind sspstrong uwtable
define internal void @bdrv_dirty_bitmaps_lock(ptr noundef %bs) #0 {
entry:
  %bs.addr = alloca ptr, align 8
  %_f = alloca ptr, align 8
  %tmp = alloca ptr, align 8
  %atomic-temp = alloca ptr, align 8
  store ptr %bs, ptr %bs.addr, align 8
  br label %while.cond

while.cond:                                       ; preds = %do.end, %entry
  br i1 false, label %while.body, label %while.end

while.body:                                       ; preds = %while.cond
  br label %do.body

do.body:                                          ; preds = %while.body
  call void @g_assertion_message_expr(ptr noundef null, ptr noundef @.str.1, i32 noundef 66, ptr noundef @__func__.bdrv_dirty_bitmaps_lock, ptr noundef null) #10
  unreachable

do.end:                                           ; No predecessors!
  br label %while.cond

while.end:                                        ; preds = %while.cond
  %0 = load atomic i64, ptr @qemu_mutex_lock_func monotonic, align 8
  store i64 %0, ptr %atomic-temp, align 8
  %1 = load ptr, ptr %atomic-temp, align 8
  store ptr %1, ptr %tmp, align 8
  %2 = load ptr, ptr %tmp, align 8
  store ptr %2, ptr %_f, align 8
  %3 = load ptr, ptr %_f, align 8
  %4 = load ptr, ptr %bs.addr, align 8
  %dirty_bitmap_mutex = getelementptr inbounds %struct.BlockDriverState, ptr %4, i32 0, i32 39
  call void %3(ptr noundef %dirty_bitmap_mutex, ptr noundef @.str.1, i32 noundef 66)
  ret void
}

; Function Attrs: nounwind sspstrong uwtable
define internal i32 @ctz32(i32 noundef %val) #0 {
entry:
  %val.addr = alloca i32, align 4
  store i32 %val, ptr %val.addr, align 4
  %0 = load i32, ptr %val.addr, align 4
  %tobool = icmp ne i32 %0, 0
  br i1 %tobool, label %cond.true, label %cond.false

cond.true:                                        ; preds = %entry
  %1 = load i32, ptr %val.addr, align 4
  %2 = call i32 @llvm.cttz.i32(i32 %1, i1 true)
  br label %cond.end

cond.false:                                       ; preds = %entry
  br label %cond.end

cond.end:                                         ; preds = %cond.false, %cond.true
  %cond = phi i32 [ %2, %cond.true ], [ 32, %cond.false ]
  ret i32 %cond
}

; Function Attrs: nounwind sspstrong uwtable
define dso_local ptr @bdrv_find_dirty_bitmap(ptr noundef %bs, ptr noundef %name) #0 {
entry:
  %retval = alloca ptr, align 8
  %bs.addr = alloca ptr, align 8
  %name.addr = alloca ptr, align 8
  %bm = alloca ptr, align 8
  store ptr %bs, ptr %bs.addr, align 8
  store ptr %name, ptr %name.addr, align 8
  %0 = load ptr, ptr %name.addr, align 8
  %tobool = icmp ne ptr %0, null
  br i1 %tobool, label %if.then, label %if.else

if.then:                                          ; preds = %entry
  br label %if.end

if.else:                                          ; preds = %entry
  call void @__assert_fail(ptr noundef @.str, ptr noundef @.str.1, i32 noundef 89, ptr noundef @__PRETTY_FUNCTION__.bdrv_find_dirty_bitmap) #11
  unreachable

if.end:                                           ; preds = %if.then
  %1 = load ptr, ptr %bs.addr, align 8
  %dirty_bitmaps = getelementptr inbounds %struct.BlockDriverState, ptr %1, i32 0, i32 40
  %lh_first = getelementptr inbounds %struct.anon.6, ptr %dirty_bitmaps, i32 0, i32 0
  %2 = load ptr, ptr %lh_first, align 8
  store ptr %2, ptr %bm, align 8
  br label %for.cond

for.cond:                                         ; preds = %for.inc, %if.end
  %3 = load ptr, ptr %bm, align 8
  %tobool1 = icmp ne ptr %3, null
  br i1 %tobool1, label %for.body, label %for.end

for.body:                                         ; preds = %for.cond
  %4 = load ptr, ptr %bm, align 8
  %name2 = getelementptr inbounds %struct.BdrvDirtyBitmap, ptr %4, i32 0, i32 4
  %5 = load ptr, ptr %name2, align 8
  %tobool3 = icmp ne ptr %5, null
  br i1 %tobool3, label %land.lhs.true, label %if.end7

land.lhs.true:                                    ; preds = %for.body
  %6 = load ptr, ptr %name.addr, align 8
  %7 = load ptr, ptr %bm, align 8
  %name4 = getelementptr inbounds %struct.BdrvDirtyBitmap, ptr %7, i32 0, i32 4
  %8 = load ptr, ptr %name4, align 8
  %call = call i32 @strcmp(ptr noundef %6, ptr noundef %8) #12
  %tobool5 = icmp ne i32 %call, 0
  br i1 %tobool5, label %if.end7, label %if.then6

if.then6:                                         ; preds = %land.lhs.true
  %9 = load ptr, ptr %bm, align 8
  store ptr %9, ptr %retval, align 8
  br label %return

if.end7:                                          ; preds = %land.lhs.true, %for.body
  br label %for.inc

for.inc:                                          ; preds = %if.end7
  %10 = load ptr, ptr %bm, align 8
  %list = getelementptr inbounds %struct.BdrvDirtyBitmap, ptr %10, i32 0, i32 12
  %le_next = getelementptr inbounds %struct.anon, ptr %list, i32 0, i32 0
  %11 = load ptr, ptr %le_next, align 8
  store ptr %11, ptr %bm, align 8
  br label %for.cond, !llvm.loop !5

for.end:                                          ; preds = %for.cond
  store ptr null, ptr %retval, align 8
  br label %return

return:                                           ; preds = %for.end, %if.then6
  %12 = load ptr, ptr %retval, align 8
  ret ptr %12
}

; Function Attrs: nounwind sspstrong uwtable
define internal zeroext i1 @is_power_of_2(i64 noundef %value) #0 {
entry:
  %retval = alloca i1, align 1
  %value.addr = alloca i64, align 8
  store i64 %value, ptr %value.addr, align 8
  %0 = load i64, ptr %value.addr, align 8
  %tobool = icmp ne i64 %0, 0
  br i1 %tobool, label %if.end, label %if.then

if.then:                                          ; preds = %entry
  store i1 false, ptr %retval, align 1
  br label %return

if.end:                                           ; preds = %entry
  %1 = load i64, ptr %value.addr, align 8
  %2 = load i64, ptr %value.addr, align 8
  %sub = sub i64 %2, 1
  %and = and i64 %1, %sub
  %tobool1 = icmp ne i64 %and, 0
  %lnot = xor i1 %tobool1, true
  store i1 %lnot, ptr %retval, align 1
  br label %return

return:                                           ; preds = %if.end, %if.then
  %3 = load i1, ptr %retval, align 1
  ret i1 %3
}

; Function Attrs: nounwind sspstrong uwtable
define dso_local ptr @bdrv_create_dirty_bitmap(ptr noundef %bs, i32 noundef %granularity, ptr noundef %name, ptr noundef %errp) #0 {
entry:
  %retval = alloca ptr, align 8
  %bs.addr = alloca ptr, align 8
  %granularity.addr = alloca i32, align 4
  %name.addr = alloca ptr, align 8
  %errp.addr = alloca ptr, align 8
  %bitmap_size = alloca i64, align 8
  %bitmap = alloca ptr, align 8
  store ptr %bs, ptr %bs.addr, align 8
  store i32 %granularity, ptr %granularity.addr, align 4
  store ptr %name, ptr %name.addr, align 8
  store ptr %errp, ptr %errp.addr, align 8
  %0 = load i32, ptr %granularity.addr, align 4
  %conv = zext i32 %0 to i64
  %call = call zeroext i1 @is_power_of_2(i64 noundef %conv)
  br i1 %call, label %land.lhs.true, label %if.else

land.lhs.true:                                    ; preds = %entry
  %1 = load i32, ptr %granularity.addr, align 4
  %conv2 = zext i32 %1 to i64
  %cmp = icmp uge i64 %conv2, 512
  br i1 %cmp, label %if.then, label %if.else

if.then:                                          ; preds = %land.lhs.true
  br label %if.end

if.else:                                          ; preds = %land.lhs.true, %entry
  call void @__assert_fail(ptr noundef @.str.2, ptr noundef @.str.1, i32 noundef 107, ptr noundef @__PRETTY_FUNCTION__.bdrv_create_dirty_bitmap) #11
  unreachable

if.end:                                           ; preds = %if.then
  %2 = load ptr, ptr %name.addr, align 8
  %tobool = icmp ne ptr %2, null
  br i1 %tobool, label %if.then4, label %if.end14

if.then4:                                         ; preds = %if.end
  %3 = load ptr, ptr %bs.addr, align 8
  %4 = load ptr, ptr %name.addr, align 8
  %call5 = call ptr @bdrv_find_dirty_bitmap(ptr noundef %3, ptr noundef %4)
  %tobool6 = icmp ne ptr %call5, null
  br i1 %tobool6, label %if.then7, label %if.end8

if.then7:                                         ; preds = %if.then4
  %5 = load ptr, ptr %errp.addr, align 8
  %6 = load ptr, ptr %name.addr, align 8
  call void (ptr, ptr, i32, ptr, ptr, ...) @error_setg_internal(ptr noundef %5, ptr noundef @.str.1, i32 noundef 111, ptr noundef @__func__.bdrv_create_dirty_bitmap, ptr noundef @.str.3, ptr noundef %6)
  store ptr null, ptr %retval, align 8
  br label %return

if.end8:                                          ; preds = %if.then4
  %7 = load ptr, ptr %name.addr, align 8
  %call9 = call i64 @strlen(ptr noundef %7) #12
  %cmp10 = icmp ugt i64 %call9, 1023
  br i1 %cmp10, label %if.then12, label %if.end13

if.then12:                                        ; preds = %if.end8
  %8 = load ptr, ptr %errp.addr, align 8
  %9 = load ptr, ptr %name.addr, align 8
  call void (ptr, ptr, i32, ptr, ptr, ...) @error_setg_internal(ptr noundef %8, ptr noundef @.str.1, i32 noundef 115, ptr noundef @__func__.bdrv_create_dirty_bitmap, ptr noundef @.str.4, ptr noundef %9)
  store ptr null, ptr %retval, align 8
  br label %return

if.end13:                                         ; preds = %if.end8
  br label %if.end14

if.end14:                                         ; preds = %if.end13, %if.end
  %10 = load ptr, ptr %bs.addr, align 8
  %call15 = call i64 @bdrv_getlength(ptr noundef %10)
  store i64 %call15, ptr %bitmap_size, align 8
  %11 = load i64, ptr %bitmap_size, align 8
  %cmp16 = icmp slt i64 %11, 0
  br i1 %cmp16, label %if.then18, label %if.end23

if.then18:                                        ; preds = %if.end14
  %12 = load ptr, ptr %errp.addr, align 8
  %13 = load i64, ptr %bitmap_size, align 8
  %sub = sub i64 0, %13
  %conv19 = trunc i64 %sub to i32
  call void (ptr, ptr, i32, ptr, i32, ptr, ...) @error_setg_errno_internal(ptr noundef %12, ptr noundef @.str.1, i32 noundef 121, ptr noundef @__func__.bdrv_create_dirty_bitmap, i32 noundef %conv19, ptr noundef @.str.5)
  %14 = load i64, ptr %bitmap_size, align 8
  %sub20 = sub i64 0, %14
  %conv21 = trunc i64 %sub20 to i32
  %call22 = call ptr @__errno_location() #13
  store i32 %conv21, ptr %call22, align 4
  store ptr null, ptr %retval, align 8
  br label %return

if.end23:                                         ; preds = %if.end14
  %call24 = call noalias ptr @g_malloc0_n(i64 noundef 1, i64 noundef 80) #14
  store ptr %call24, ptr %bitmap, align 8
  %15 = load ptr, ptr %bs.addr, align 8
  %16 = load ptr, ptr %bitmap, align 8
  %bs25 = getelementptr inbounds %struct.BdrvDirtyBitmap, ptr %16, i32 0, i32 0
  store ptr %15, ptr %bs25, align 8
  %17 = load i64, ptr %bitmap_size, align 8
  %18 = load i32, ptr %granularity.addr, align 4
  %call26 = call i32 @ctz32(i32 noundef %18)
  %call27 = call ptr @hbitmap_alloc(i64 noundef %17, i32 noundef %call26)
  %19 = load ptr, ptr %bitmap, align 8
  %bitmap28 = getelementptr inbounds %struct.BdrvDirtyBitmap, ptr %19, i32 0, i32 1
  store ptr %call27, ptr %bitmap28, align 8
  %20 = load i64, ptr %bitmap_size, align 8
  %21 = load ptr, ptr %bitmap, align 8
  %size = getelementptr inbounds %struct.BdrvDirtyBitmap, ptr %21, i32 0, i32 5
  store i64 %20, ptr %size, align 8
  %22 = load ptr, ptr %name.addr, align 8
  %call29 = call noalias ptr @g_strdup(ptr noundef %22)
  %23 = load ptr, ptr %bitmap, align 8
  %name30 = getelementptr inbounds %struct.BdrvDirtyBitmap, ptr %23, i32 0, i32 4
  store ptr %call29, ptr %name30, align 8
  %24 = load ptr, ptr %bitmap, align 8
  %disabled = getelementptr inbounds %struct.BdrvDirtyBitmap, ptr %24, i32 0, i32 6
  store i8 0, ptr %disabled, align 8
  %25 = load ptr, ptr %bs.addr, align 8
  call void @bdrv_dirty_bitmaps_lock(ptr noundef %25)
  br label %do.body

do.body:                                          ; preds = %if.end23
  %26 = load ptr, ptr %bs.addr, align 8
  %dirty_bitmaps = getelementptr inbounds %struct.BlockDriverState, ptr %26, i32 0, i32 40
  %lh_first = getelementptr inbounds %struct.anon.6, ptr %dirty_bitmaps, i32 0, i32 0
  %27 = load ptr, ptr %lh_first, align 8
  %28 = load ptr, ptr %bitmap, align 8
  %list = getelementptr inbounds %struct.BdrvDirtyBitmap, ptr %28, i32 0, i32 12
  %le_next = getelementptr inbounds %struct.anon, ptr %list, i32 0, i32 0
  store ptr %27, ptr %le_next, align 8
  %cmp31 = icmp ne ptr %27, null
  br i1 %cmp31, label %if.then33, label %if.end39

if.then33:                                        ; preds = %do.body
  %29 = load ptr, ptr %bitmap, align 8
  %list34 = getelementptr inbounds %struct.BdrvDirtyBitmap, ptr %29, i32 0, i32 12
  %le_next35 = getelementptr inbounds %struct.anon, ptr %list34, i32 0, i32 0
  %30 = load ptr, ptr %bs.addr, align 8
  %dirty_bitmaps36 = getelementptr inbounds %struct.BlockDriverState, ptr %30, i32 0, i32 40
  %lh_first37 = getelementptr inbounds %struct.anon.6, ptr %dirty_bitmaps36, i32 0, i32 0
  %31 = load ptr, ptr %lh_first37, align 8
  %list38 = getelementptr inbounds %struct.BdrvDirtyBitmap, ptr %31, i32 0, i32 12
  %le_prev = getelementptr inbounds %struct.anon, ptr %list38, i32 0, i32 1
  store ptr %le_next35, ptr %le_prev, align 8
  br label %if.end39

if.end39:                                         ; preds = %if.then33, %do.body
  %32 = load ptr, ptr %bitmap, align 8
  %33 = load ptr, ptr %bs.addr, align 8
  %dirty_bitmaps40 = getelementptr inbounds %struct.BlockDriverState, ptr %33, i32 0, i32 40
  %lh_first41 = getelementptr inbounds %struct.anon.6, ptr %dirty_bitmaps40, i32 0, i32 0
  store ptr %32, ptr %lh_first41, align 8
  %34 = load ptr, ptr %bs.addr, align 8
  %dirty_bitmaps42 = getelementptr inbounds %struct.BlockDriverState, ptr %34, i32 0, i32 40
  %lh_first43 = getelementptr inbounds %struct.anon.6, ptr %dirty_bitmaps42, i32 0, i32 0
  %35 = load ptr, ptr %bitmap, align 8
  %list44 = getelementptr inbounds %struct.BdrvDirtyBitmap, ptr %35, i32 0, i32 12
  %le_prev45 = getelementptr inbounds %struct.anon, ptr %list44, i32 0, i32 1
  store ptr %lh_first43, ptr %le_prev45, align 8
  br label %do.end

do.end:                                           ; preds = %if.end39
  %36 = load ptr, ptr %bs.addr, align 8
  call void @bdrv_dirty_bitmaps_unlock(ptr noundef %36)
  %37 = load ptr, ptr %bitmap, align 8
  store ptr %37, ptr %retval, align 8
  br label %return

return:                                           ; preds = %do.end, %if.then18, %if.then12, %if.then7
  %38 = load ptr, ptr %retval, align 8
  ret ptr %38
}