; Function Attrs: nounwind sspstrong uwtable
define dso_local noundef ptr @bdrv_create_dirty_bitmap(ptr noundef %bs, i32 noundef %granularity, ptr noundef %name, ptr noundef %errp) local_unnamed_addr #0 {
entry:
  %tobool.not.i = icmp eq i32 %granularity, 0
  br i1 %tobool.not.i, label %if.else, label %is_power_of_2.exit

is_power_of_2.exit:                               ; preds = %entry
  %0 = tail call range(i32 1, 33) i32 @llvm.ctpop.i32(i32 %granularity)
  %tobool1.not.i = icmp samesign ult i32 %0, 2
  %cmp = icmp ugt i32 %granularity, 511
  %or.cond = and i1 %cmp, %tobool1.not.i
  br i1 %or.cond, label %if.end, label %if.else

if.else:                                          ; preds = %entry, %is_power_of_2.exit
  tail call void @__assert_fail(ptr noundef nonnull @.str.2, ptr noundef nonnull @.str.1, i32 noundef 107, ptr noundef nonnull @__PRETTY_FUNCTION__.bdrv_create_dirty_bitmap) #15
  unreachable

if.end:                                           ; preds = %is_power_of_2.exit
  %tobool.not = icmp eq ptr %name, null
  br i1 %tobool.not, label %if.end14, label %if.end.i32

if.end.i32:                                       ; preds = %if.end
  %dirty_bitmaps.i = getelementptr inbounds nuw i8, ptr %bs, i64 16952
  %bm.06.i = load ptr, ptr %dirty_bitmaps.i, align 8
  %tobool1.not7.i = icmp eq ptr %bm.06.i, null
  br i1 %tobool1.not7.i, label %if.end8, label %for.body.i

for.body.i:                                       ; preds = %if.end.i32, %for.inc.i
  %bm.08.i = phi ptr [ %bm.0.i, %for.inc.i ], [ %bm.06.i, %if.end.i32 ]
  %name2.i = getelementptr inbounds nuw i8, ptr %bm.08.i, i64 32
  %1 = load ptr, ptr %name2.i, align 8
  %tobool3.not.i = icmp eq ptr %1, null
  br i1 %tobool3.not.i, label %for.inc.i, label %land.lhs.true.i

land.lhs.true.i:                                  ; preds = %for.body.i
  %call.i = tail call i32 @strcmp(ptr noundef nonnull readonly dereferenceable(1) %name, ptr noundef nonnull dereferenceable(1) %1) #16
  %tobool5.not.i = icmp eq i32 %call.i, 0
  br i1 %tobool5.not.i, label %if.then7, label %for.inc.i

for.inc.i:                                        ; preds = %land.lhs.true.i, %for.body.i
  %list.i = getelementptr inbounds nuw i8, ptr %bm.08.i, i64 64
  %bm.0.i = load ptr, ptr %list.i, align 8
  %tobool1.not.i33 = icmp eq ptr %bm.0.i, null
  br i1 %tobool1.not.i33, label %if.end8, label %for.body.i, !llvm.loop !5

if.then7:                                         ; preds = %land.lhs.true.i
  tail call void (ptr, ptr, i32, ptr, ptr, ...) @error_setg_internal(ptr noundef %errp, ptr noundef nonnull @.str.1, i32 noundef 111, ptr noundef nonnull @__func__.bdrv_create_dirty_bitmap, ptr noundef nonnull @.str.3, ptr noundef nonnull %name) #14
  br label %return

if.end8:                                          ; preds = %for.inc.i, %if.end.i32
  %call9 = tail call i64 @strlen(ptr noundef nonnull dereferenceable(1) %name) #16
  %cmp10 = icmp ugt i64 %call9, 1023
  br i1 %cmp10, label %if.then12, label %if.end14

if.then12:                                        ; preds = %if.end8
  tail call void (ptr, ptr, i32, ptr, ptr, ...) @error_setg_internal(ptr noundef %errp, ptr noundef nonnull @.str.1, i32 noundef 115, ptr noundef nonnull @__func__.bdrv_create_dirty_bitmap, ptr noundef nonnull @.str.4, ptr noundef nonnull %name) #14
  br label %return

if.end14:                                         ; preds = %if.end8, %if.end
  %call15 = tail call i64 @bdrv_getlength(ptr noundef %bs) #14
  %cmp16 = icmp slt i64 %call15, 0
  br i1 %cmp16, label %if.then18, label %if.end23

if.then18:                                        ; preds = %if.end14
  %2 = trunc i64 %call15 to i32
  %conv19 = sub i32 0, %2
  tail call void (ptr, ptr, i32, ptr, i32, ptr, ...) @error_setg_errno_internal(ptr noundef %errp, ptr noundef nonnull @.str.1, i32 noundef 121, ptr noundef nonnull @__func__.bdrv_create_dirty_bitmap, i32 noundef %conv19, ptr noundef nonnull @.str.5) #14
  %call22 = tail call ptr @__errno_location() #17
  store i32 %conv19, ptr %call22, align 4
  br label %return

if.end23:                                         ; preds = %if.end14
  %call24 = tail call noalias dereferenceable_or_null(80) ptr @g_malloc0_n(i64 noundef 1, i64 noundef 80) #18
  store ptr %bs, ptr %call24, align 8
  %3 = tail call range(i32 0, 33) i32 @llvm.cttz.i32(i32 %granularity, i1 true)
  %call27 = tail call ptr @hbitmap_alloc(i64 noundef %call15, i32 noundef %3) #14
  %bitmap28 = getelementptr inbounds nuw i8, ptr %call24, i64 8
  store ptr %call27, ptr %bitmap28, align 8
  %size = getelementptr inbounds nuw i8, ptr %call24, i64 40
  store i64 %call15, ptr %size, align 8
  %call29 = tail call noalias ptr @g_strdup(ptr noundef %name) #14
  %name30 = getelementptr inbounds nuw i8, ptr %call24, i64 32
  store ptr %call29, ptr %name30, align 8
  %disabled = getelementptr inbounds nuw i8, ptr %call24, i64 48
  store i8 0, ptr %disabled, align 8
  %4 = load atomic i64, ptr @qemu_mutex_lock_func monotonic, align 8
  %5 = inttoptr i64 %4 to ptr
  %dirty_bitmap_mutex.i = getelementptr inbounds nuw i8, ptr %bs, i64 16904
  tail call void %5(ptr noundef nonnull %dirty_bitmap_mutex.i, ptr noundef nonnull @.str.1, i32 noundef 66) #14
  %dirty_bitmaps = getelementptr inbounds nuw i8, ptr %bs, i64 16952
  %6 = load ptr, ptr %dirty_bitmaps, align 8
  %list = getelementptr inbounds nuw i8, ptr %call24, i64 64
  store ptr %6, ptr %list, align 8
  %cmp31.not = icmp eq ptr %6, null
  br i1 %cmp31.not, label %if.end39, label %if.then33

if.then33:                                        ; preds = %if.end23
  %le_prev = getelementptr inbounds nuw i8, ptr %6, i64 72
  store ptr %list, ptr %le_prev, align 8
  br label %if.end39

if.end39:                                         ; preds = %if.then33, %if.end23
  store ptr %call24, ptr %dirty_bitmaps, align 8
  %le_prev45 = getelementptr inbounds nuw i8, ptr %call24, i64 72
  store ptr %dirty_bitmaps, ptr %le_prev45, align 8
  tail call void @qemu_mutex_unlock_impl(ptr noundef nonnull %dirty_bitmap_mutex.i, ptr noundef nonnull @.str.1, i32 noundef 71) #14
  br label %return

return:                                           ; preds = %if.end39, %if.then18, %if.then12, %if.then7
  %retval.0 = phi ptr [ null, %if.then7 ], [ null, %if.then12 ], [ null, %if.then18 ], [ %call24, %if.end39 ]
  ret ptr %retval.0
}